target datalayout = "e-m:e-p270:32:32-p271:32:32-p272:64:64-i64:64-i128:128-f80:128-n8:16:32:64-S128"
target triple = "x86_64-pc-linux-gnu"

%struct.MinMaxLen = type { i64, i64 }
%struct.OptAncInfo = type { i32, i32 }
%struct.OptMapInfo = type { %struct.MinMaxLen, %struct.OptAncInfo, i32, [256 x i8] }
%struct.OnigEncodingTypeST = type { ptr, ptr, i32, i32, ptr, ptr, ptr, ptr, ptr, ptr, ptr, ptr, ptr, ptr, ptr, ptr, ptr, i32, i32 }
%struct.OnigCaseFoldCodeItem = type { i32, i32, [3 x i32] }

; Function Attrs: nounwind sspstrong uwtable
define internal i32 @map_position_value(ptr noundef %0, i32 noundef %1) #0 {
  %3 = alloca i32, align 4
  %4 = alloca ptr, align 8
  %5 = alloca i32, align 4
  store ptr %0, ptr %4, align 8, !tbaa !37
  store i32 %1, ptr %5, align 4, !tbaa !7
  %6 = load i32, ptr %5, align 4, !tbaa !7
  %7 = icmp slt i32 %6, 128
  br i1 %7, label %8, label %23

8:                                                ; preds = %2
  %9 = load i32, ptr %5, align 4, !tbaa !7
  %10 = icmp eq i32 %9, 0
  br i1 %10, label %11, label %17

11:                                               ; preds = %8
  %12 = load ptr, ptr %4, align 8, !tbaa !37
  %13 = getelementptr inbounds nuw %struct.OnigEncodingTypeST, ptr %12, i32 0, i32 3
  %14 = load i32, ptr %13, align 4, !tbaa !189
  %15 = icmp sgt i32 %14, 1
  br i1 %15, label %16, label %17

16:                                               ; preds = %11
  store i32 20, ptr %3, align 4
  br label %24

17:                                               ; preds = %11, %8
  %18 = load i32, ptr %5, align 4, !tbaa !7
  %19 = sext i32 %18 to i64
  %20 = getelementptr [128 x i16], ptr @map_position_value.ByteValTable, i64 0, i64 %19
  %21 = load i16, ptr %20, align 2, !tbaa !283
  %22 = sext i16 %21 to i32
  store i32 %22, ptr %3, align 4
  br label %24

23:                                               ; preds = %2
  store i32 4, ptr %3, align 4
  br label %24

24:                                               ; preds = %23, %17, %16
  %25 = load i32, ptr %3, align 4
  ret i32 %25
}

; Function Attrs: nounwind sspstrong uwtable
define internal void @add_char_opt_map_info(ptr noundef %0, i8 noundef zeroext %1, ptr noundef %2) #0 {
  %4 = alloca ptr, align 8
  %5 = alloca i8, align 1
  %6 = alloca ptr, align 8
  store ptr %0, ptr %4, align 8, !tbaa !36
  store i8 %1, ptr %5, align 1, !tbaa !38
  store ptr %2, ptr %6, align 8, !tbaa !37
  %7 = load ptr, ptr %4, align 8, !tbaa !36
  %8 = getelementptr inbounds nuw %struct.OptMapInfo, ptr %7, i32 0, i32 3
  %9 = load i8, ptr %5, align 1, !tbaa !38
  %10 = zext i8 %9 to i64
  %11 = getelementptr [256 x i8], ptr %8, i64 0, i64 %10
  %12 = load i8, ptr %11, align 1, !tbaa !38
  %13 = zext i8 %12 to i32
  %14 = icmp eq i32 %13, 0
  br i1 %14, label %15, label %29

15:                                               ; preds = %3
  %16 = load ptr, ptr %4, align 8, !tbaa !36
  %17 = getelementptr inbounds nuw %struct.OptMapInfo, ptr %16, i32 0, i32 3
  %18 = load i8, ptr %5, align 1, !tbaa !38
  %19 = zext i8 %18 to i64
  %20 = getelementptr [256 x i8], ptr %17, i64 0, i64 %19
  store i8 1, ptr %20, align 1, !tbaa !38
  %21 = load ptr, ptr %6, align 8, !tbaa !37
  %22 = load i8, ptr %5, align 1, !tbaa !38
  %23 = zext i8 %22 to i32
  %24 = call i32 @map_position_value(ptr noundef %21, i32 noundef %23)
  %25 = load ptr, ptr %4, align 8, !tbaa !36
  %26 = getelementptr inbounds nuw %struct.OptMapInfo, ptr %25, i32 0, i32 2
  %27 = load i32, ptr %26, align 8, !tbaa !254
  %28 = add i32 %27, %24
  store i32 %28, ptr %26, align 8, !tbaa !254
  br label %29

29:                                               ; preds = %15, %3
  ret void
}

; Function Attrs: nounwind sspstrong uwtable
define internal i32 @add_char_amb_opt_map_info(ptr noundef %0, ptr noundef %1, ptr noundef %2, ptr noundef %3, i32 noundef %4) #0 {
  %6 = alloca i32, align 4
  %7 = alloca ptr, align 8
  %8 = alloca ptr, align 8
  %9 = alloca ptr, align 8
  %10 = alloca ptr, align 8
  %11 = alloca i32, align 4
  %12 = alloca [13 x %struct.OnigCaseFoldCodeItem], align 16
  %13 = alloca [7 x i8], align 1
  %14 = alloca i32, align 4
  %15 = alloca i32, align 4
  %16 = alloca i32, align 4
  store ptr %0, ptr %7, align 8, !tbaa !36
  store ptr %1, ptr %8, align 8, !tbaa !35
  store ptr %2, ptr %9, align 8, !tbaa !35
  store ptr %3, ptr %10, align 8, !tbaa !37
  store i32 %4, ptr %11, align 4, !tbaa !7
  call void @llvm.lifetime.start.p0(i64 260, ptr %12) #11
  call void @llvm.lifetime.start.p0(i64 7, ptr %13) #11
  call void @llvm.lifetime.start.p0(i64 4, ptr %14) #11
  call void @llvm.lifetime.start.p0(i64 4, ptr %15) #11
  %17 = load ptr, ptr %7, align 8, !tbaa !36
  %18 = load ptr, ptr %8, align 8, !tbaa !35
  %19 = getelementptr i8, ptr %18, i64 0
  %20 = load i8, ptr %19, align 1, !tbaa !38
  %21 = load ptr, ptr %10, align 8, !tbaa !37
  call void @add_char_opt_map_info(ptr noundef %17, i8 noundef zeroext %20, ptr noundef %21)
  %22 = load i32, ptr %11, align 4, !tbaa !7
  %23 = and i32 %22, -1073741825
  store i32 %23, ptr %11, align 4, !tbaa !7
  %24 = load ptr, ptr %10, align 8, !tbaa !37
  %25 = getelementptr inbounds nuw %struct.OnigEncodingTypeST, ptr %24, i32 0, i32 10
  %26 = load ptr, ptr %25, align 8, !tbaa !204
  %27 = load i32, ptr %11, align 4, !tbaa !7
  %28 = load ptr, ptr %8, align 8, !tbaa !35
  %29 = load ptr, ptr %9, align 8, !tbaa !35
  %30 = getelementptr inbounds [13 x %struct.OnigCaseFoldCodeItem], ptr %12, i64 0, i64 0
  %31 = load ptr, ptr %10, align 8, !tbaa !37
  %32 = call i32 %26(i32 noundef %27, ptr noundef %28, ptr noundef %29, ptr noundef %30, ptr noundef %31)
  store i32 %32, ptr %15, align 4, !tbaa !7
  %33 = load i32, ptr %15, align 4, !tbaa !7
  %34 = icmp slt i32 %33, 0
  br i1 %34, label %35, label %37

35:                                               ; preds = %5
  %36 = load i32, ptr %15, align 4, !tbaa !7
  store i32 %36, ptr %6, align 4
  store i32 1, ptr %16, align 4
  br label %63

37:                                               ; preds = %5
  store i32 0, ptr %14, align 4, !tbaa !7
  br label %38

38:                                               ; preds = %59, %37
  %39 = load i32, ptr %14, align 4, !tbaa !7
  %40 = load i32, ptr %15, align 4, !tbaa !7
  %41 = icmp slt i32 %39, %40
  br i1 %41, label %42, label %62

42:                                               ; preds = %38
  %43 = load ptr, ptr %10, align 8, !tbaa !37
  %44 = getelementptr inbounds nuw %struct.OnigEncodingTypeST, ptr %43, i32 0, i32 7
  %45 = load ptr, ptr %44, align 8, !tbaa !226
  %46 = load i32, ptr %14, align 4, !tbaa !7
  %47 = sext i32 %46 to i64
  %48 = getelementptr [13 x %struct.OnigCaseFoldCodeItem], ptr %12, i64 0, i64 %47
  %49 = getelementptr inbounds nuw %struct.OnigCaseFoldCodeItem, ptr %48, i32 0, i32 2
  %50 = getelementptr [3 x i32], ptr %49, i64 0, i64 0
  %51 = load i32, ptr %50, align 4, !tbaa !7
  %52 = getelementptr inbounds [7 x i8], ptr %13, i64 0, i64 0
  %53 = load ptr, ptr %10, align 8, !tbaa !37
  %54 = call i32 %45(i32 noundef %51, ptr noundef %52, ptr noundef %53)
  %55 = load ptr, ptr %7, align 8, !tbaa !36
  %56 = getelementptr [7 x i8], ptr %13, i64 0, i64 0
  %57 = load i8, ptr %56, align 1, !tbaa !38
  %58 = load ptr, ptr %10, align 8, !tbaa !37
  call void @add_char_opt_map_info(ptr noundef %55, i8 noundef zeroext %57, ptr noundef %58)
  br label %59

59:                                               ; preds = %42
  %60 = load i32, ptr %14, align 4, !tbaa !7
  %61 = add i32 %60, 1
  store i32 %61, ptr %14, align 4, !tbaa !7
  br label %38, !llvm.loop !273

62:                                               ; preds = %38
  store i32 0, ptr %6, align 4
  store i32 1, ptr %16, align 4
  br label %63

63:                                               ; preds = %62, %35
  call void @llvm.lifetime.end.p0(i64 4, ptr %15) #11
  call void @llvm.lifetime.end.p0(i64 4, ptr %14) #11
  call void @llvm.lifetime.end.p0(i64 7, ptr %13) #11
  call void @llvm.lifetime.end.p0(i64 260, ptr %12) #11
  %64 = load i32, ptr %6, align 4
  ret i32 %64
}