; Function Attrs: nounwind sspstrong uwtable
define internal fastcc range(i32 -2147483648, 1) i32 @add_char_amb_opt_map_info(ptr noundef nonnull captures(none) %0, ptr noundef %1, ptr noundef %2, ptr noundef %3, i32 noundef %4) unnamed_addr #4 {
  %6 = alloca [13 x %struct.OnigCaseFoldCodeItem], align 16
  %7 = alloca [7 x i8], align 1
  call void @llvm.lifetime.start.p0(i64 260, ptr nonnull %6) #20
  call void @llvm.lifetime.start.p0(i64 7, ptr nonnull %7) #20
  %8 = load i8, ptr %1, align 1, !tbaa !34
  %9 = getelementptr inbounds nuw i8, ptr %0, i64 28
  %10 = zext i8 %8 to i64
  %11 = getelementptr [256 x i8], ptr %9, i64 0, i64 %10
  %12 = load i8, ptr %11, align 1, !tbaa !34
  %13 = icmp eq i8 %12, 0
  br i1 %13, label %14, label %add_char_opt_map_info.exit

14:                                               ; preds = %5
  store i8 1, ptr %11, align 1, !tbaa !34
  %15 = icmp sgt i8 %8, -1
  br i1 %15, label %16, label %map_position_value.exit.i

16:                                               ; preds = %14
  %17 = icmp eq i8 %8, 0
  br i1 %17, label %18, label %22

18:                                               ; preds = %16
  %19 = getelementptr inbounds nuw i8, ptr %3, i64 20
  %20 = load i32, ptr %19, align 4, !tbaa !160
  %21 = icmp sgt i32 %20, 1
  br i1 %21, label %map_position_value.exit.i, label %22

22:                                               ; preds = %18, %16
  %23 = getelementptr [128 x i16], ptr @map_position_value.ByteValTable, i64 0, i64 %10
  %24 = load i16, ptr %23, align 2, !tbaa !98
  %25 = sext i16 %24 to i32
  br label %map_position_value.exit.i

map_position_value.exit.i:                        ; preds = %22, %18, %14
  %.0.i.i = phi i32 [ %25, %22 ], [ 20, %18 ], [ 4, %14 ]
  %26 = getelementptr inbounds nuw i8, ptr %0, i64 24
  %27 = load i32, ptr %26, align 8, !tbaa !263
  %28 = add i32 %27, %.0.i.i
  store i32 %28, ptr %26, align 8, !tbaa !263
  br label %add_char_opt_map_info.exit

add_char_opt_map_info.exit:                       ; preds = %5, %map_position_value.exit.i
  %29 = and i32 %4, -1073741825
  %30 = getelementptr inbounds nuw i8, ptr %3, i64 72
  %31 = load ptr, ptr %30, align 8, !tbaa !158
  %32 = call i32 %31(i32 noundef %29, ptr noundef nonnull %1, ptr noundef %2, ptr noundef nonnull %6, ptr noundef %3) #20
  %33 = icmp slt i32 %32, 0
  br i1 %33, label %.loopexit, label %.preheader

.preheader:                                       ; preds = %add_char_opt_map_info.exit
  %.not = icmp eq i32 %32, 0
  br i1 %.not, label %.loopexit, label %.lr.ph

.lr.ph:                                           ; preds = %.preheader
  %34 = getelementptr inbounds nuw i8, ptr %3, i64 48
  %35 = getelementptr inbounds nuw i8, ptr %3, i64 20
  %36 = getelementptr inbounds nuw i8, ptr %0, i64 24
  %wide.trip.count = zext nneg i32 %32 to i64
  br label %37

37:                                               ; preds = %.lr.ph, %add_char_opt_map_info.exit23
  %indvars.iv = phi i64 [ 0, %.lr.ph ], [ %indvars.iv.next, %add_char_opt_map_info.exit23 ]
  %38 = load ptr, ptr %34, align 8, !tbaa !167
  %39 = getelementptr [13 x %struct.OnigCaseFoldCodeItem], ptr %6, i64 0, i64 %indvars.iv, i32 2
  %40 = load i32, ptr %39, align 4, !tbaa !7
  %41 = call i32 %38(i32 noundef %40, ptr noundef nonnull %7, ptr noundef nonnull %3) #20
  %42 = load i8, ptr %7, align 1, !tbaa !34
  %43 = zext i8 %42 to i64
  %44 = getelementptr [256 x i8], ptr %9, i64 0, i64 %43
  %45 = load i8, ptr %44, align 1, !tbaa !34
  %46 = icmp eq i8 %45, 0
  br i1 %46, label %47, label %add_char_opt_map_info.exit23

47:                                               ; preds = %37
  store i8 1, ptr %44, align 1, !tbaa !34
  %48 = icmp sgt i8 %42, -1
  br i1 %48, label %49, label %map_position_value.exit.i21

49:                                               ; preds = %47
  %50 = icmp eq i8 %42, 0
  br i1 %50, label %51, label %54

51:                                               ; preds = %49
  %52 = load i32, ptr %35, align 4, !tbaa !160
  %53 = icmp sgt i32 %52, 1
  br i1 %53, label %map_position_value.exit.i21, label %54

54:                                               ; preds = %51, %49
  %55 = getelementptr [128 x i16], ptr @map_position_value.ByteValTable, i64 0, i64 %43
  %56 = load i16, ptr %55, align 2, !tbaa !98
  %57 = sext i16 %56 to i32
  br label %map_position_value.exit.i21

map_position_value.exit.i21:                      ; preds = %54, %51, %47
  %.0.i.i22 = phi i32 [ %57, %54 ], [ 20, %51 ], [ 4, %47 ]
  %58 = load i32, ptr %36, align 8, !tbaa !263
  %59 = add i32 %58, %.0.i.i22
  store i32 %59, ptr %36, align 8, !tbaa !263
  br label %add_char_opt_map_info.exit23

add_char_opt_map_info.exit23:                     ; preds = %37, %map_position_value.exit.i21
  %indvars.iv.next = add nuw nsw i64 %indvars.iv, 1
  %exitcond.not = icmp eq i64 %indvars.iv.next, %wide.trip.count
  br i1 %exitcond.not, label %.loopexit, label %37, !llvm.loop !282

.loopexit:                                        ; preds = %add_char_opt_map_info.exit23, %.preheader, %add_char_opt_map_info.exit
  %.0 = phi i32 [ %32, %add_char_opt_map_info.exit ], [ 0, %.preheader ], [ 0, %add_char_opt_map_info.exit23 ]
  call void @llvm.lifetime.end.p0(i64 7, ptr nonnull %7) #20
  call void @llvm.lifetime.end.p0(i64 260, ptr nonnull %6) #20
  ret i32 %.0
}